; ModuleID = '57/198.c'
source_filename = "57/198.c"
target datalayout = "e-m:e-p270:32:32-p271:32:32-p272:64:64-i64:64-f80:128-n8:16:32:64-S128"
target triple = "x86_64-pc-linux-gnu"

@.str = private unnamed_addr constant [3 x i8] c"%d\00", align 1
@.str.1 = private unnamed_addr constant [3 x i8] c"%s\00", align 1
@.str.2 = private unnamed_addr constant [4 x i8] c"%s\0A\00", align 1

; Function Attrs: noinline nounwind uwtable
define dso_local void @main() #0 {
  %1 = alloca i32, align 4
  %2 = alloca [20 x i8], align 16
  %3 = alloca i32, align 4
  %4 = alloca i32, align 4
  %5 = alloca [100 x [20 x i8]], align 16
  %6 = call i32 (i8*, ...) @__isoc99_scanf(i8* getelementptr inbounds ([3 x i8], [3 x i8]* @.str, i64 0, i64 0), i32* %1)
  store i32 0, i32* %3, align 4
  br label %7

7:                                                ; preds = %16, %0
  %8 = load i32, i32* %3, align 4
  %9 = load i32, i32* %1, align 4
  %10 = icmp slt i32 %8, %9
  br i1 %10, label %11, label %19

11:                                               ; preds = %7
  %12 = load i32, i32* %3, align 4
  %13 = sext i32 %12 to i64
  %14 = getelementptr inbounds [100 x [20 x i8]], [100 x [20 x i8]]* %5, i64 0, i64 %13
  %15 = call i32 (i8*, ...) @__isoc99_scanf(i8* getelementptr inbounds ([3 x i8], [3 x i8]* @.str.1, i64 0, i64 0), [20 x i8]* %14)
  br label %16

16:                                               ; preds = %11
  %17 = load i32, i32* %3, align 4
  %18 = add nsw i32 %17, 1
  store i32 %18, i32* %3, align 4
  br label %7

19:                                               ; preds = %7
  store i32 0, i32* %3, align 4
  br label %20

20:                                               ; preds = %124, %19
  %21 = load i32, i32* %3, align 4
  %22 = load i32, i32* %1, align 4
  %23 = icmp slt i32 %21, %22
  br i1 %23, label %24, label %127

24:                                               ; preds = %20
  %25 = load i32, i32* %3, align 4
  %26 = sext i32 %25 to i64
  %27 = getelementptr inbounds [100 x [20 x i8]], [100 x [20 x i8]]* %5, i64 0, i64 %26
  %28 = getelementptr inbounds [20 x i8], [20 x i8]* %27, i64 0, i64 0
  %29 = call i64 @strlen(i8* %28) #4
  %30 = trunc i64 %29 to i32
  store i32 %30, i32* %4, align 4
  %31 = load i32, i32* %3, align 4
  %32 = sext i32 %31 to i64
  %33 = getelementptr inbounds [100 x [20 x i8]], [100 x [20 x i8]]* %5, i64 0, i64 %32
  %34 = load i32, i32* %4, align 4
  %35 = sub nsw i32 %34, 2
  %36 = sext i32 %35 to i64
  %37 = getelementptr inbounds [20 x i8], [20 x i8]* %33, i64 0, i64 %36
  %38 = load i8, i8* %37, align 1
  %39 = sext i8 %38 to i32
  %40 = icmp eq i32 %39, 101
  br i1 %40, label %41, label %68

41:                                               ; preds = %24
  %42 = load i32, i32* %3, align 4
  %43 = sext i32 %42 to i64
  %44 = getelementptr inbounds [100 x [20 x i8]], [100 x [20 x i8]]* %5, i64 0, i64 %43
  %45 = load i32, i32* %4, align 4
  %46 = sub nsw i32 %45, 1
  %47 = sext i32 %46 to i64
  %48 = getelementptr inbounds [20 x i8], [20 x i8]* %44, i64 0, i64 %47
  %49 = load i8, i8* %48, align 1
  %50 = sext i8 %49 to i32
  %51 = icmp eq i32 %50, 114
  br i1 %51, label %52, label %68

52:                                               ; preds = %41
  %53 = getelementptr inbounds [20 x i8], [20 x i8]* %2, i64 0, i64 0
  %54 = load i32, i32* %3, align 4
  %55 = sext i32 %54 to i64
  %56 = getelementptr inbounds [100 x [20 x i8]], [100 x [20 x i8]]* %5, i64 0, i64 %55
  %57 = getelementptr inbounds [20 x i8], [20 x i8]* %56, i64 0, i64 0
  %58 = load i32, i32* %4, align 4
  %59 = sub nsw i32 %58, 2
  %60 = sext i32 %59 to i64
  %61 = call i8* @strncpy(i8* %53, i8* %57, i64 %60) #5
  %62 = load i32, i32* %4, align 4
  %63 = sub nsw i32 %62, 2
  %64 = sext i32 %63 to i64
  %65 = getelementptr inbounds [20 x i8], [20 x i8]* %2, i64 0, i64 %64
  store i8 0, i8* %65, align 1
  %66 = getelementptr inbounds [20 x i8], [20 x i8]* %2, i64 0, i64 0
  %67 = call i32 (i8*, ...) @printf(i8* getelementptr inbounds ([4 x i8], [4 x i8]* @.str.2, i64 0, i64 0), i8* %66)
  br label %123

68:                                               ; preds = %41, %24
  %69 = load i32, i32* %3, align 4
  %70 = sext i32 %69 to i64
  %71 = getelementptr inbounds [100 x [20 x i8]], [100 x [20 x i8]]* %5, i64 0, i64 %70
  %72 = load i32, i32* %4, align 4
  %73 = sub nsw i32 %72, 2
  %74 = sext i32 %73 to i64
  %75 = getelementptr inbounds [20 x i8], [20 x i8]* %71, i64 0, i64 %74
  %76 = load i8, i8* %75, align 1
  %77 = sext i8 %76 to i32
  %78 = icmp eq i32 %77, 108
  br i1 %78, label %79, label %106

79:                                               ; preds = %68
  %80 = load i32, i32* %3, align 4
  %81 = sext i32 %80 to i64
  %82 = getelementptr inbounds [100 x [20 x i8]], [100 x [20 x i8]]* %5, i64 0, i64 %81
  %83 = load i32, i32* %4, align 4
  %84 = sub nsw i32 %83, 1
  %85 = sext i32 %84 to i64
  %86 = getelementptr inbounds [20 x i8], [20 x i8]* %82, i64 0, i64 %85
  %87 = load i8, i8* %86, align 1
  %88 = sext i8 %87 to i32
  %89 = icmp eq i32 %88, 121
  br i1 %89, label %90, label %106

90:                                               ; preds = %79
  %91 = getelementptr inbounds [20 x i8], [20 x i8]* %2, i64 0, i64 0
  %92 = load i32, i32* %3, align 4
  %93 = sext i32 %92 to i64
  %94 = getelementptr inbounds [100 x [20 x i8]], [100 x [20 x i8]]* %5, i64 0, i64 %93
  %95 = getelementptr inbounds [20 x i8], [20 x i8]* %94, i64 0, i64 0
  %96 = load i32, i32* %4, align 4
  %97 = sub nsw i32 %96, 2
  %98 = sext i32 %97 to i64
  %99 = call i8* @strncpy(i8* %91, i8* %95, i64 %98) #5
  %100 = load i32, i32* %4, align 4
  %101 = sub nsw i32 %100, 2
  %102 = sext i32 %101 to i64
  %103 = getelementptr inbounds [20 x i8], [20 x i8]* %2, i64 0, i64 %102
  store i8 0, i8* %103, align 1
  %104 = getelementptr inbounds [20 x i8], [20 x i8]* %2, i64 0, i64 0
  %105 = call i32 (i8*, ...) @printf(i8* getelementptr inbounds ([4 x i8], [4 x i8]* @.str.2, i64 0, i64 0), i8* %104)
  br label %122

106:                                              ; preds = %79, %68
  %107 = getelementptr inbounds [20 x i8], [20 x i8]* %2, i64 0, i64 0
  %108 = load i32, i32* %3, align 4
  %109 = sext i32 %108 to i64
  %110 = getelementptr inbounds [100 x [20 x i8]], [100 x [20 x i8]]* %5, i64 0, i64 %109
  %111 = getelementptr inbounds [20 x i8], [20 x i8]* %110, i64 0, i64 0
  %112 = load i32, i32* %4, align 4
  %113 = sub nsw i32 %112, 3
  %114 = sext i32 %113 to i64
  %115 = call i8* @strncpy(i8* %107, i8* %111, i64 %114) #5
  %116 = load i32, i32* %4, align 4
  %117 = sub nsw i32 %116, 3
  %118 = sext i32 %117 to i64
  %119 = getelementptr inbounds [20 x i8], [20 x i8]* %2, i64 0, i64 %118
  store i8 0, i8* %119, align 1
  %120 = getelementptr inbounds [20 x i8], [20 x i8]* %2, i64 0, i64 0
  %121 = call i32 (i8*, ...) @printf(i8* getelementptr inbounds ([4 x i8], [4 x i8]* @.str.2, i64 0, i64 0), i8* %120)
  br label %122

122:                                              ; preds = %106, %90
  br label %123

123:                                              ; preds = %122, %52
  br label %124

124:                                              ; preds = %123
  %125 = load i32, i32* %3, align 4
  %126 = add nsw i32 %125, 1
  store i32 %126, i32* %3, align 4
  br label %20

127:                                              ; preds = %20
  ret void
}

declare dso_local i32 @__isoc99_scanf(i8*, ...) #1

; Function Attrs: nounwind readonly
declare dso_local i64 @strlen(i8*) #2

; Function Attrs: nounwind
declare dso_local i8* @strncpy(i8*, i8*, i64) #3

declare dso_local i32 @printf(i8*, ...) #1


!llvm.module.flags = !{!0}
!llvm.ident = !{!1}

!0 = !{i32 1, !"wchar_size", i32 4}
!1 = !{!"clang version 10.0.0-4ubuntu1 "}
