; ModuleID = 'source-C-CXX/56/198.c'
source_filename = "source-C-CXX/56/198.c"
target datalayout = "e-m:e-p270:32:32-p271:32:32-p272:64:64-i64:64-f80:128-n8:16:32:64-S128"
target triple = "x86_64-pc-linux-gnu"

@.str = private unnamed_addr constant [3 x i8] c"%d\00", align 1
@.str.1 = private unnamed_addr constant [3 x i8] c"%s\00", align 1

; Function Attrs: nofree nounwind sspstrong uwtable
define dso_local void @main() local_unnamed_addr #0 {
  %1 = alloca i32, align 4
  %2 = alloca [20 x i8], align 16
  %3 = alloca [100 x [20 x i8]], align 16
  %4 = bitcast i32* %1 to i8*
  call void @llvm.lifetime.start.p0i8(i64 4, i8* nonnull %4) #6
  %5 = getelementptr inbounds [20 x i8], [20 x i8]* %2, i64 0, i64 0
  call void @llvm.lifetime.start.p0i8(i64 20, i8* nonnull %5) #6
  %6 = getelementptr inbounds [100 x [20 x i8]], [100 x [20 x i8]]* %3, i64 0, i64 0, i64 0
  call void @llvm.lifetime.start.p0i8(i64 2000, i8* nonnull %6) #6
  %7 = call i32 (i8*, ...) @__isoc99_scanf(i8* getelementptr inbounds ([3 x i8], [3 x i8]* @.str, i64 0, i64 0), i32* nonnull %1)
  %8 = load i32, i32* %1, align 4, !tbaa !5
  %9 = icmp sgt i32 %8, 0
  br i1 %9, label %12, label %53

10:                                               ; preds = %12
  %11 = icmp sgt i32 %17, 0
  br i1 %11, label %20, label %53

12:                                               ; preds = %0, %12
  %13 = phi i64 [ %16, %12 ], [ 0, %0 ]
  %14 = getelementptr inbounds [100 x [20 x i8]], [100 x [20 x i8]]* %3, i64 0, i64 %13
  %15 = call i32 (i8*, ...) @__isoc99_scanf(i8* getelementptr inbounds ([3 x i8], [3 x i8]* @.str.1, i64 0, i64 0), [20 x i8]* nonnull %14)
  %16 = add nuw nsw i64 %13, 1
  %17 = load i32, i32* %1, align 4, !tbaa !5
  %18 = sext i32 %17 to i64
  %19 = icmp slt i64 %16, %18
  br i1 %19, label %12, label %10, !llvm.loop !9

20:                                               ; preds = %10, %44
  %21 = phi i64 [ %49, %44 ], [ 0, %10 ]
  %22 = getelementptr inbounds [100 x [20 x i8]], [100 x [20 x i8]]* %3, i64 0, i64 %21, i64 0
  %23 = call i64 @strlen(i8* noundef nonnull %22) #7
  %24 = shl i64 %23, 32
  %25 = add i64 %24, -8589934592
  %26 = ashr exact i64 %25, 32
  %27 = getelementptr inbounds [100 x [20 x i8]], [100 x [20 x i8]]* %3, i64 0, i64 %21, i64 %26
  %28 = load i8, i8* %27, align 1, !tbaa !11
  switch i8 %28, label %41 [
    i8 101, label %29
    i8 108, label %35
  ]

29:                                               ; preds = %20
  %30 = add i64 %24, -4294967296
  %31 = ashr exact i64 %30, 32
  %32 = getelementptr inbounds [100 x [20 x i8]], [100 x [20 x i8]]* %3, i64 0, i64 %21, i64 %31
  %33 = load i8, i8* %32, align 1, !tbaa !11
  %34 = icmp eq i8 %33, 114
  br i1 %34, label %44, label %41

35:                                               ; preds = %20
  %36 = add i64 %24, -4294967296
  %37 = ashr exact i64 %36, 32
  %38 = getelementptr inbounds [100 x [20 x i8]], [100 x [20 x i8]]* %3, i64 0, i64 %21, i64 %37
  %39 = load i8, i8* %38, align 1, !tbaa !11
  %40 = icmp eq i8 %39, 121
  br i1 %40, label %44, label %41

41:                                               ; preds = %20, %29, %35
  %42 = add i64 %24, -12884901888
  %43 = ashr exact i64 %42, 32
  br label %44

44:                                               ; preds = %35, %29, %41
  %45 = phi i64 [ %43, %41 ], [ %26, %29 ], [ %26, %35 ]
  %46 = call i8* @strncpy(i8* noundef nonnull %5, i8* nonnull %22, i64 %45) #6
  %47 = getelementptr inbounds [20 x i8], [20 x i8]* %2, i64 0, i64 %45
  store i8 0, i8* %47, align 1, !tbaa !11
  %48 = call i32 @puts(i8* nonnull %5)
  %49 = add nuw nsw i64 %21, 1
  %50 = load i32, i32* %1, align 4, !tbaa !5
  %51 = sext i32 %50 to i64
  %52 = icmp slt i64 %49, %51
  br i1 %52, label %20, label %53, !llvm.loop !12

53:                                               ; preds = %44, %0, %10
  call void @llvm.lifetime.end.p0i8(i64 2000, i8* nonnull %6) #6
  call void @llvm.lifetime.end.p0i8(i64 20, i8* nonnull %5) #6
  call void @llvm.lifetime.end.p0i8(i64 4, i8* nonnull %4) #6
  ret void
}

; Function Attrs: argmemonly mustprogress nofree nosync nounwind willreturn
declare void @llvm.lifetime.start.p0i8(i64 immarg, i8* nocapture) #1

; Function Attrs: nofree nounwind
declare noundef i32 @__isoc99_scanf(i8* nocapture noundef readonly, ...) local_unnamed_addr #2

; Function Attrs: argmemonly mustprogress nofree nounwind readonly willreturn
declare i64 @strlen(i8* nocapture) local_unnamed_addr #3

; Function Attrs: argmemonly mustprogress nofree nounwind willreturn
declare i8* @strncpy(i8* noalias returned writeonly, i8* noalias nocapture readonly, i64) local_unnamed_addr #4

; Function Attrs: argmemonly mustprogress nofree nosync nounwind willreturn
declare void @llvm.lifetime.end.p0i8(i64 immarg, i8* nocapture) #1

; Function Attrs: nofree nounwind
declare noundef i32 @puts(i8* nocapture noundef readonly) local_unnamed_addr #5


!llvm.module.flags = !{!0, !1, !2, !3}
!llvm.ident = !{!4}

!0 = !{i32 1, !"wchar_size", i32 4}
!1 = !{i32 7, !"PIC Level", i32 2}
!2 = !{i32 7, !"PIE Level", i32 2}
!3 = !{i32 7, !"uwtable", i32 1}
!4 = !{!"clang version 13.0.0"}
!5 = !{!6, !6, i64 0}
!6 = !{!"int", !7, i64 0}
!7 = !{!"omnipotent char", !8, i64 0}
!8 = !{!"Simple C/C++ TBAA"}
!9 = distinct !{!9, !10}
!10 = !{!"llvm.loop.mustprogress"}
!11 = !{!7, !7, i64 0}
!12 = distinct !{!12, !10}
